target datalayout = "e-m:e-p270:32:32-p271:32:32-p272:64:64-i64:64-i128:128-f80:128-n8:16:32:64-S128"
target triple = "x86_64-pc-linux-gnu"

%struct.JoinPathExtraData = type { ptr, ptr, i8, ptr, %struct.SemiAntiJoinFactors, ptr }
%struct.SemiAntiJoinFactors = type { double, double }
%struct.Path = type { i32, i32, ptr, ptr, ptr, i8, i8, i32, double, i32, double, double, ptr }
%struct.ParamPathInfo = type { i32, ptr, double, ptr, ptr }
%struct.JoinCostWorkspace = type { i32, double, double, double, double, double, double, double, double, double, i32, i32, double }

; Function Attrs: nounwind uwtable
define internal void @try_partial_mergejoin_path(ptr noundef %0, ptr noundef %1, ptr noundef %2, ptr noundef %3, ptr noundef %4, ptr noundef %5, ptr noundef %6, ptr noundef %7, i32 noundef %8, ptr noundef %9) #0 {
  %11 = alloca ptr, align 8
  %12 = alloca ptr, align 8
  %13 = alloca ptr, align 8
  %14 = alloca ptr, align 8
  %15 = alloca ptr, align 8
  %16 = alloca ptr, align 8
  %17 = alloca ptr, align 8
  %18 = alloca ptr, align 8
  %19 = alloca i32, align 4
  %20 = alloca ptr, align 8
  %21 = alloca %struct.JoinCostWorkspace, align 8
  %22 = alloca i32, align 4
  store ptr %0, ptr %11, align 8
  store ptr %1, ptr %12, align 8
  store ptr %2, ptr %13, align 8
  store ptr %3, ptr %14, align 8
  store ptr %4, ptr %15, align 8
  store ptr %5, ptr %16, align 8
  store ptr %6, ptr %17, align 8
  store ptr %7, ptr %18, align 8
  store i32 %8, ptr %19, align 4
  store ptr %9, ptr %20, align 8
  call void @llvm.lifetime.start.p0(i64 96, ptr %21) #6
  %23 = load ptr, ptr %14, align 8
  %24 = getelementptr inbounds nuw %struct.Path, ptr %23, i32 0, i32 4
  %25 = load ptr, ptr %24, align 8
  %26 = icmp ne ptr %25, null
  br i1 %26, label %27, label %33

27:                                               ; preds = %10
  %28 = load ptr, ptr %14, align 8
  %29 = getelementptr inbounds nuw %struct.Path, ptr %28, i32 0, i32 4
  %30 = load ptr, ptr %29, align 8
  %31 = getelementptr inbounds nuw %struct.ParamPathInfo, ptr %30, i32 0, i32 1
  %32 = load ptr, ptr %31, align 8
  br label %34

33:                                               ; preds = %10
  br label %34

34:                                               ; preds = %33, %27
  %35 = phi ptr [ %32, %27 ], [ null, %33 ]
  %36 = icmp eq ptr %35, null
  br i1 %36, label %38, label %37

37:                                               ; preds = %34
  store i32 1, ptr %22, align 4
  br label %91

38:                                               ; preds = %34
  %39 = load ptr, ptr %17, align 8
  %40 = icmp ne ptr %39, null
  br i1 %40, label %41, label %48

41:                                               ; preds = %38
  %42 = load ptr, ptr %17, align 8
  %43 = load ptr, ptr %13, align 8
  %44 = getelementptr inbounds nuw %struct.Path, ptr %43, i32 0, i32 12
  %45 = load ptr, ptr %44, align 8
  %46 = call zeroext i1 @pathkeys_contained_in(ptr noundef %42, ptr noundef %45)
  br i1 %46, label %47, label %48

47:                                               ; preds = %41
  store ptr null, ptr %17, align 8
  br label %48

48:                                               ; preds = %47, %41, %38
  %49 = load ptr, ptr %18, align 8
  %50 = icmp ne ptr %49, null
  br i1 %50, label %51, label %58

51:                                               ; preds = %48
  %52 = load ptr, ptr %18, align 8
  %53 = load ptr, ptr %14, align 8
  %54 = getelementptr inbounds nuw %struct.Path, ptr %53, i32 0, i32 12
  %55 = load ptr, ptr %54, align 8
  %56 = call zeroext i1 @pathkeys_contained_in(ptr noundef %52, ptr noundef %55)
  br i1 %56, label %57, label %58

57:                                               ; preds = %51
  store ptr null, ptr %18, align 8
  br label %58

58:                                               ; preds = %57, %51, %48
  %59 = load ptr, ptr %11, align 8
  %60 = load i32, ptr %19, align 4
  %61 = load ptr, ptr %16, align 8
  %62 = load ptr, ptr %13, align 8
  %63 = load ptr, ptr %14, align 8
  %64 = load ptr, ptr %17, align 8
  %65 = load ptr, ptr %18, align 8
  %66 = load ptr, ptr %20, align 8
  call void @initial_cost_mergejoin(ptr noundef %59, ptr noundef %21, i32 noundef %60, ptr noundef %61, ptr noundef %62, ptr noundef %63, ptr noundef %64, ptr noundef %65, ptr noundef %66)
  %67 = load ptr, ptr %12, align 8
  %68 = getelementptr inbounds nuw %struct.JoinCostWorkspace, ptr %21, i32 0, i32 0
  %69 = load i32, ptr %68, align 8
  %70 = getelementptr inbounds nuw %struct.JoinCostWorkspace, ptr %21, i32 0, i32 2
  %71 = load double, ptr %70, align 8
  %72 = load ptr, ptr %15, align 8
  %73 = call zeroext i1 @add_partial_path_precheck(ptr noundef %67, i32 noundef %69, double noundef %71, ptr noundef %72)
  br i1 %73, label %75, label %74

74:                                               ; preds = %58
  store i32 1, ptr %22, align 4
  br label %91

75:                                               ; preds = %58
  %76 = load ptr, ptr %12, align 8
  %77 = load ptr, ptr %11, align 8
  %78 = load ptr, ptr %12, align 8
  %79 = load i32, ptr %19, align 4
  %80 = load ptr, ptr %20, align 8
  %81 = load ptr, ptr %13, align 8
  %82 = load ptr, ptr %14, align 8
  %83 = load ptr, ptr %20, align 8
  %84 = getelementptr inbounds nuw %struct.JoinPathExtraData, ptr %83, i32 0, i32 0
  %85 = load ptr, ptr %84, align 8
  %86 = load ptr, ptr %15, align 8
  %87 = load ptr, ptr %16, align 8
  %88 = load ptr, ptr %17, align 8
  %89 = load ptr, ptr %18, align 8
  %90 = call ptr @create_mergejoin_path(ptr noundef %77, ptr noundef %78, i32 noundef %79, ptr noundef %21, ptr noundef %80, ptr noundef %81, ptr noundef %82, ptr noundef %85, ptr noundef %86, ptr noundef null, ptr noundef %87, ptr noundef %88, ptr noundef %89)
  call void @add_partial_path(ptr noundef %76, ptr noundef %90)
  store i32 0, ptr %22, align 4
  br label %91

91:                                               ; preds = %75, %74, %37
  call void @llvm.lifetime.end.p0(i64 96, ptr %21) #6
  %92 = load i32, ptr %22, align 4
  switch i32 %92, label %94 [
    i32 0, label %93
    i32 1, label %93
  ]

93:                                               ; preds = %91, %91
  ret void

94:                                               ; preds = %91
  unreachable
}