; Function Attrs: nounwind uwtable
define internal fastcc void @try_partial_mergejoin_path(ptr noundef %0, ptr noundef %1, ptr noundef %2, ptr noundef %3, ptr noundef %4, ptr noundef %5, ptr noundef %6, ptr noundef %7, i32 noundef %8, ptr noundef nonnull %9) unnamed_addr #0 {
  %11 = alloca %struct.JoinCostWorkspace, align 8
  call void @llvm.lifetime.start.p0(i64 96, ptr nonnull %11) #5
  %12 = getelementptr inbounds nuw i8, ptr %3, i64 24
  %13 = load ptr, ptr %12, align 8
  %.not = icmp eq ptr %13, null
  br i1 %.not, label %.critedge, label %14

14:                                               ; preds = %10
  %15 = getelementptr inbounds nuw i8, ptr %13, i64 8
  %16 = load ptr, ptr %15, align 8
  %17 = icmp eq ptr %16, null
  br i1 %17, label %.critedge, label %35

.critedge:                                        ; preds = %10, %14
  %.not34 = icmp eq ptr %6, null
  br i1 %.not34, label %22, label %18

18:                                               ; preds = %.critedge
  %19 = getelementptr inbounds nuw i8, ptr %2, i64 72
  %20 = load ptr, ptr %19, align 8
  %21 = tail call zeroext i1 @pathkeys_contained_in(ptr noundef nonnull %6, ptr noundef %20) #5
  %spec.select = select i1 %21, ptr null, ptr %6
  br label %22

22:                                               ; preds = %18, %.critedge
  %.0 = phi ptr [ null, %.critedge ], [ %spec.select, %18 ]
  %.not35 = icmp eq ptr %7, null
  br i1 %.not35, label %27, label %23

23:                                               ; preds = %22
  %24 = getelementptr inbounds nuw i8, ptr %3, i64 72
  %25 = load ptr, ptr %24, align 8
  %26 = tail call zeroext i1 @pathkeys_contained_in(ptr noundef nonnull %7, ptr noundef %25) #5
  %spec.select36 = select i1 %26, ptr null, ptr %7
  br label %27

27:                                               ; preds = %23, %22
  %.029 = phi ptr [ null, %22 ], [ %spec.select36, %23 ]
  call void @initial_cost_mergejoin(ptr noundef %0, ptr noundef nonnull %11, i32 noundef %8, ptr noundef %5, ptr noundef %2, ptr noundef nonnull %3, ptr noundef %.0, ptr noundef %.029, ptr noundef nonnull %9) #5
  %28 = load i32, ptr %11, align 8
  %29 = getelementptr inbounds nuw i8, ptr %11, i64 16
  %30 = load double, ptr %29, align 8
  %31 = call zeroext i1 @add_partial_path_precheck(ptr noundef %1, i32 noundef %28, double noundef %30, ptr noundef %4) #5
  br i1 %31, label %32, label %35

32:                                               ; preds = %27
  %33 = load ptr, ptr %9, align 8
  %34 = call ptr @create_mergejoin_path(ptr noundef %0, ptr noundef %1, i32 noundef %8, ptr noundef nonnull %11, ptr noundef nonnull %9, ptr noundef %2, ptr noundef nonnull %3, ptr noundef %33, ptr noundef %4, ptr noundef null, ptr noundef %5, ptr noundef %.0, ptr noundef %.029) #5
  call void @add_partial_path(ptr noundef %1, ptr noundef %34) #5
  br label %35

35:                                               ; preds = %27, %14, %32
  call void @llvm.lifetime.end.p0(i64 96, ptr nonnull %11) #5
  ret void
}